; Function Attrs: mustprogress nounwind uwtable
define dso_local i64 @_ZNK4llvm15TargetInstrInfo28getPatchpointUnfoldableRangeERKNS_12MachineInstrE(ptr nocapture nonnull readnone align 8 %0, ptr noundef nonnull align 8 dereferenceable(70) %1) unnamed_addr #0 align 2 {
  %3 = alloca %"class.llvm::StackMapOpers", align 8
  %4 = alloca %"class.llvm::PatchPointOpers", align 8
  %5 = getelementptr inbounds nuw i8, ptr %1, i64 68
  %6 = load i16, ptr %5, align 4
  switch i16 %6, label %46 [
    i16 25, label %7
    i16 27, label %8
    i16 31, label %22
  ]

7:                                                ; preds = %2
  call void @_ZN4llvm13StackMapOpersC1EPKNS_12MachineInstrE(ptr noundef nonnull align 8 dereferenceable(8) %3, ptr noundef nonnull %1) #26
  br label %47

8:                                                ; preds = %2
  call void @_ZN4llvm15PatchPointOpersC1EPKNS_12MachineInstrE(ptr noundef nonnull align 8 dereferenceable(9) %4, ptr noundef nonnull %1) #26
  %9 = getelementptr inbounds nuw i8, ptr %4, i64 8
  %10 = load i8, ptr %9, align 8
  %11 = and i8 %10, 1
  %narrow.i = add nuw nsw i8 %11, 5
  %12 = zext nneg i8 %narrow.i to i32
  %13 = load ptr, ptr %4, align 8
  %14 = getelementptr inbounds nuw i8, ptr %13, i64 32
  %15 = load ptr, ptr %14, align 8
  %16 = zext nneg i8 %11 to i64
  %17 = getelementptr inbounds %"class.llvm::MachineOperand", ptr %15, i64 %16
  %18 = getelementptr inbounds i8, ptr %17, i64 112
  %19 = load i64, ptr %18, align 8
  %20 = trunc i64 %19 to i32
  %21 = add i32 %20, %12
  br label %47

22:                                               ; preds = %2
  %23 = tail call noundef i32 @_ZNK4llvm12MachineInstr18getNumExplicitDefsEv(ptr noundef nonnull align 8 dereferenceable(70) %1) #26
  %24 = getelementptr inbounds nuw i8, ptr %1, i64 16
  %25 = load ptr, ptr %24, align 8
  %26 = getelementptr inbounds nuw i8, ptr %25, i64 9
  %27 = load i8, ptr %26, align 1
  %28 = zext i8 %27 to i32
  %29 = add i32 %23, %28
  %30 = tail call noundef i32 @_ZNK4llvm12MachineInstr18getNumExplicitDefsEv(ptr noundef nonnull align 8 dereferenceable(70) %1) #26
  %31 = load ptr, ptr %24, align 8
  %32 = getelementptr inbounds nuw i8, ptr %31, i64 9
  %33 = load i8, ptr %32, align 1
  %34 = zext i8 %33 to i32
  %35 = add i32 %30, %34
  %36 = add i32 %35, 2
  %37 = getelementptr inbounds nuw i8, ptr %1, i64 32
  %38 = load ptr, ptr %37, align 8
  %39 = zext i32 %36 to i64
  %40 = getelementptr inbounds %"class.llvm::MachineOperand", ptr %38, i64 %39, i32 3
  %41 = load i64, ptr %40, align 8
  %42 = trunc i64 %41 to i32
  %43 = add i32 %35, 4
  %44 = add i32 %43, %42
  %45 = zext i32 %29 to i64
  br label %47

46:                                               ; preds = %2
  unreachable

47:                                               ; preds = %22, %8, %7
  %.sroa.022.0 = phi i64 [ %45, %22 ], [ 0, %8 ], [ 0, %7 ]
  %.sroa.4.0 = phi i32 [ %44, %22 ], [ %21, %8 ], [ 2, %7 ]
  %.sroa.4.0.insert.ext = zext i32 %.sroa.4.0 to i64
  %.sroa.4.0.insert.shift = shl nuw i64 %.sroa.4.0.insert.ext, 32
  %.sroa.022.0.insert.insert = or disjoint i64 %.sroa.4.0.insert.shift, %.sroa.022.0
  ret i64 %.sroa.022.0.insert.insert
}